target datalayout = "e-m:e-p270:32:32-p271:32:32-p272:64:64-i64:64-i128:128-f80:128-n8:16:32:64-S128"
target triple = "x86_64-pc-linux-gnu"

%"class.icu_77::UObject" = type { ptr }
%"class.icu_77::BytesTrieBuilder::BTLinearMatchNode" = type { %"class.icu_77::StringTrieBuilder::LinearMatchNode", ptr }
%"class.icu_77::StringTrieBuilder::LinearMatchNode" = type { %"class.icu_77::StringTrieBuilder::ValueNode", i32, ptr }
%"class.icu_77::StringTrieBuilder::ValueNode" = type { %"class.icu_77::StringTrieBuilder::Node", i8, i32 }
%"class.icu_77::StringTrieBuilder::Node" = type { %"class.icu_77::UObject", i32, i32 }

; Function Attrs: mustprogress uwtable
define noundef zeroext i1 @_ZNK6icu_7716BytesTrieBuilder17BTLinearMatchNodeeqERKNS_17StringTrieBuilder4NodeE(ptr noundef nonnull align 8 dereferenceable(48) %0, ptr noundef nonnull align 8 dereferenceable(16) %1) unnamed_addr #1 align 2 {
  %3 = alloca i1, align 1
  %4 = alloca ptr, align 8
  %5 = alloca ptr, align 8
  %6 = alloca ptr, align 8
  store ptr %0, ptr %4, align 8, !tbaa !72
  store ptr %1, ptr %5, align 8, !tbaa !74
  %7 = load ptr, ptr %4, align 8
  %8 = load ptr, ptr %5, align 8, !tbaa !74
  %9 = icmp eq ptr %7, %8
  br i1 %9, label %10, label %11

10:                                               ; preds = %2
  store i1 true, ptr %3, align 1
  br label %27

11:                                               ; preds = %2
  %12 = load ptr, ptr %5, align 8, !tbaa !74
  %13 = call noundef zeroext i1 @_ZNK6icu_7717StringTrieBuilder15LinearMatchNodeeqERKNS0_4NodeE(ptr noundef nonnull align 8 dereferenceable(40) %7, ptr noundef nonnull align 8 dereferenceable(16) %12)
  br i1 %13, label %15, label %14

14:                                               ; preds = %11
  store i1 false, ptr %3, align 1
  br label %27

15:                                               ; preds = %11
  call void @llvm.lifetime.start.p0(i64 8, ptr %6) #12
  %16 = load ptr, ptr %5, align 8, !tbaa !74
  store ptr %16, ptr %6, align 8, !tbaa !72
  %17 = getelementptr inbounds nuw %"class.icu_77::BytesTrieBuilder::BTLinearMatchNode", ptr %7, i32 0, i32 1
  %18 = load ptr, ptr %17, align 8, !tbaa !76
  %19 = load ptr, ptr %6, align 8, !tbaa !72
  %20 = getelementptr inbounds nuw %"class.icu_77::BytesTrieBuilder::BTLinearMatchNode", ptr %19, i32 0, i32 1
  %21 = load ptr, ptr %20, align 8, !tbaa !76
  %22 = getelementptr inbounds nuw %"class.icu_77::StringTrieBuilder::LinearMatchNode", ptr %7, i32 0, i32 1
  %23 = load i32, ptr %22, align 8, !tbaa !84
  %24 = sext i32 %23 to i64
  %25 = call i32 @memcmp(ptr noundef %18, ptr noundef %21, i64 noundef %24) #15
  %26 = icmp eq i32 0, %25
  store i1 %26, ptr %3, align 1
  call void @llvm.lifetime.end.p0(i64 8, ptr %6) #12
  br label %27

27:                                               ; preds = %15, %14, %10
  %28 = load i1, ptr %3, align 1
  ret i1 %28
}