; Function Attrs: mustprogress uwtable
define noundef zeroext i1 @_ZNK6icu_7716BytesTrieBuilder17BTLinearMatchNodeeqERKNS_17StringTrieBuilder4NodeE(ptr noundef nonnull align 8 dereferenceable(48) %0, ptr noundef nonnull align 8 dereferenceable(16) %1) unnamed_addr #1 align 2 {
  %3 = icmp eq ptr %0, %1
  br i1 %3, label %15, label %4

4:                                                ; preds = %2
  %5 = tail call noundef zeroext i1 @_ZNK6icu_7717StringTrieBuilder15LinearMatchNodeeqERKNS0_4NodeE(ptr noundef nonnull align 8 dereferenceable(40) %0, ptr noundef nonnull align 8 dereferenceable(16) %1)
  br i1 %5, label %6, label %15

6:                                                ; preds = %4
  %7 = getelementptr inbounds nuw i8, ptr %0, i64 40
  %8 = load ptr, ptr %7, align 8, !tbaa !58
  %9 = getelementptr inbounds nuw i8, ptr %1, i64 40
  %10 = load ptr, ptr %9, align 8, !tbaa !58
  %11 = getelementptr inbounds nuw i8, ptr %0, i64 24
  %12 = load i32, ptr %11, align 8, !tbaa !54
  %13 = sext i32 %12 to i64
  %bcmp = tail call i32 @bcmp(ptr %8, ptr %10, i64 %13)
  %14 = icmp eq i32 %bcmp, 0
  br label %15

15:                                               ; preds = %4, %2, %6
  %.0 = phi i1 [ %14, %6 ], [ true, %2 ], [ false, %4 ]
  ret i1 %.0
}